Certificate:
    Data:
        Version: 3 (0x2)
        Serial Number:
            f5:89:3e:9b:76:71:ec:8b
        Signature Algorithm: sha1WithRSAEncryption
        Issuer: C=fu, ST=ck, O=DemoCAt, OU=nig, CN=DemoCAt Masturbatory Clinic/emailAddress=balls@sack.com
        Validity
            Not Before: Feb  8 19:03:24 2012 GMT
            Not After : Feb  7 19:03:24 2015 GMT
        Subject: C=fu, ST=ck, O=DemoCAt, OU=nig, CN=DemoCAt Masturbatory Clinic/emailAddress=balls@sack.com
        Subject Public Key Info:
            Public Key Algorithm: rsaEncryption
                Public-Key: (2048 bit)
                Modulus:
                    00:e5:b9:9a:0b:c7:b2:29:9f:7f:d3:90:e6:e3:42:
                    6b:5b:90:d2:d2:66:3b:69:9e:d8:cf:56:db:ce:54:
                    06:41:c8:54:d2:87:83:ed:1a:0b:5b:6e:d4:23:5c:
                    68:47:b3:0e:f3:10:1e:9c:d9:c3:01:16:b3:0a:cc:
                    39:bb:4a:69:ad:47:1a:6e:32:c0:3b:fa:b5:d6:d5:
                    01:d1:82:eb:ce:86:22:ad:a5:8e:20:d0:f8:9a:64:
                    f5:58:c3:69:34:d5:e4:d7:16:33:a1:f7:40:57:93:
                    a6:12:a5:1a:08:c8:54:80:ef:a2:9b:c7:4a:b8:a5:
                    0c:05:19:c9:e0:ca:c7:2b:26:f2:c9:7d:1a:c2:ad:
                    16:49:e9:25:df:51:d0:f4:91:61:3a:23:c2:fd:44:
                    5f:4d:bd:26:63:19:4f:73:10:29:76:13:2e:a0:29:
                    a6:3c:40:eb:41:a4:a9:e8:b3:e8:6c:27:99:1f:a4:
                    1e:e1:97:34:ab:20:ab:66:ab:81:44:1e:a2:e6:f5:
                    62:b7:2a:a8:41:43:98:fd:39:4b:b0:06:a6:46:a5:
                    00:9a:de:49:77:e1:3a:5a:91:cc:d7:69:fb:77:ff:
                    19:6b:87:ca:bf:f9:d8:8f:b6:6e:7a:b9:68:c0:10:
                    da:63:79:68:db:73:a3:44:01:c4:73:20:ef:4b:64:
                    23:f1
                Exponent: 65537 (0x10001)
        X509v3 extensions:
            X509v3 Subject Key Identifier: 
                37:C4:D6:AF:BC:18:E2:F3:E5:54:31:D8:FD:2E:B5:86:36:A2:88:48
            X509v3 Authority Key Identifier: 
                keyid:37:C4:D6:AF:BC:18:E2:F3:E5:54:31:D8:FD:2E:B5:86:36:A2:88:48

            X509v3 Basic Constraints: 
                CA:TRUE
    Signature Algorithm: sha1WithRSAEncryption
        a6:76:24:38:c6:e2:22:3a:9e:35:45:66:ab:a2:d6:fc:44:75:
        4e:8b:72:1e:91:c4:52:9f:cd:e8:2d:4e:ec:b1:95:b1:17:33:
        c7:71:43:ae:4c:f7:27:56:49:12:f5:58:d4:6c:3a:e5:6b:6a:
        5c:8a:36:c4:26:cd:88:1c:5f:f8:47:b3:30:f7:d0:e1:5b:6f:
        bf:12:56:ea:b4:a2:c8:84:7a:1a:30:ed:76:dc:c3:9c:a7:54:
        cf:c4:1e:26:c1:86:e5:66:07:e8:15:fa:0e:cd:a1:6a:0d:24:
        a9:e9:33:74:84:df:e5:8e:54:c6:2c:09:27:2a:5e:f6:7d:5b:
        5f:9a:80:3c:23:25:39:5e:88:27:8a:47:b3:ac:a0:75:de:0d:
        f0:6a:71:af:48:cc:9b:bd:62:f5:eb:e0:f9:58:f1:20:c1:22:
        b1:0b:fd:6f:17:05:da:ed:ad:d5:4e:65:ee:f6:51:d7:b9:c0:
        62:e1:ec:5a:85:d5:72:a6:7a:b6:2c:7f:3f:fb:85:db:97:a2:
        bc:6a:ad:39:62:47:2c:5a:26:00:3b:0d:bb:fa:46:cd:23:b3:
        89:59:04:7c:bb:fb:52:d3:01:1e:1a:b8:45:73:96:e7:fb:b0:
        9a:bf:33:21:83:47:28:bc:2c:3d:22:91:a8:60:e6:e0:06:80:
        e1:c4:c3:08
-----BEGIN CERTIFICATE-----
MIID0TCCArmgAwIBAgIJAPWJPpt2ceyLMA0GCSqGSIb3DQEBBQUAMH8xCzAJBgNV
BAYTAmZ1MQswCQYDVQQIDAJjazEQMA4GA1UECgwHRGVtb0NBdDEMMAoGA1UECwwD
bmlnMSQwIgYDVQQDDBtEZW1vQ0F0IE1hc3R1cmJhdG9yeSBDbGluaWMxHTAbBgkq
hkiG9w0BCQEWDmJhbGxzQHNhY2suY29tMB4XDTEyMDIwODE5MDMyNFoXDTE1MDIw
NzE5MDMyNFowfzELMAkGA1UEBhMCZnUxCzAJBgNVBAgMAmNrMRAwDgYDVQQKDAdE
ZW1vQ0F0MQwwCgYDVQQLDANuaWcxJDAiBgNVBAMMG0RlbW9DQXQgTWFzdHVyYmF0
b3J5IENsaW5pYzEdMBsGCSqGSIb3DQEJARYOYmFsbHNAc2Fjay5jb20wggEiMA0G
CSqGSIb3DQEBAQUAA4IBDwAwggEKAoIBAQDluZoLx7Ipn3/TkObjQmtbkNLSZjtp
ntjPVtvOVAZByFTSh4PtGgtbbtQjXGhHsw7zEB6c2cMBFrMKzDm7SmmtRxpuMsA7
+rXW1QHRguvOhiKtpY4g0PiaZPVYw2k01eTXFjOh90BXk6YSpRoIyFSA76Kbx0q4
pQwFGcngyscrJvLJfRrCrRZJ6SXfUdD0kWE6I8L9RF9NvSZjGU9zECl2Ey6gKaY8
QOtBpKnos+hsJ5kfpB7hlzSrIKtmq4FEHqLm9WK3KqhBQ5j9OUuwBqZGpQCa3kl3
4TpakczXaft3/xlrh8q/+diPtm56uWjAENpjeWjbc6NEAcRzIO9LZCPxAgMBAAGj
UDBOMB0GA1UdDgQWBBQ3xNavvBji8+VUMdj9LrWGNqKISDAfBgNVHSMEGDAWgBQ3
xNavvBji8+VUMdj9LrWGNqKISDAMBgNVHRMEBTADAQH/MA0GCSqGSIb3DQEBBQUA
A4IBAQCmdiQ4xuIiOp41RWarotb8RHVOi3IekcRSn83oLU7ssZWxFzPHcUOuTPcn
VkkS9VjUbDrla2pcijbEJs2IHF/4R7Mw99DhW2+/ElbqtKLIhHoaMO123MOcp1TP
xB4mwYblZgfoFfoOzaFqDSSp6TN0hN/ljlTGLAknKl72fVtfmoA8IyU5Xognikez
rKB13g3wanGvSMybvWL16+D5WPEgwSKxC/1vFwXa7a3VTmXu9lHXucBi4exahdVy
pnq2LH8/+4Xbl6K8aq05YkcsWiYAOw27+kbNI7OJWQR8u/tS0wEeGrhFc5bn+7Ca
vzMhg0covCw9IpGoYObgBoDhxMMI
-----END CERTIFICATE-----
