Certificate:
    Data:
        Version: 3 (0x2)
        Serial Number:
            fd:20:ac:78:71:66:7f:09
        Signature Algorithm: sha1WithRSAEncryption
        Issuer: C=CL, ST=CLIENTCAState, O=ClientCA, OU=sdfkj, CN=localhost/emailAddress=no@u.asdf
        Validity
            Not Before: Feb  8 19:08:49 2012 GMT
            Not After : Feb  7 19:08:49 2013 GMT
        Subject: C=qw, ST=die state, L=cityofme, O=clientCert Inc, OU=akdf, CN=localhost/emailAddress=eworu@jks.com
        Subject Public Key Info:
            Public Key Algorithm: rsaEncryption
                Public-Key: (2048 bit)
                Modulus:
                    00:d9:94:98:98:b4:d5:cb:5c:26:3b:f7:ea:03:6e:
                    a6:21:09:46:10:cd:14:c5:0a:26:25:9d:86:6e:3a:
                    57:87:6d:5b:da:c7:57:7f:0e:ef:9b:21:ee:5e:8a:
                    fb:94:d1:71:8f:fe:87:ba:1d:cb:ee:67:cd:71:2c:
                    72:f0:f1:99:87:2c:70:b7:b1:0e:29:5f:07:9e:f5:
                    f0:2f:d5:82:e6:6d:5f:e8:de:d2:3b:33:e1:83:7f:
                    f3:28:e6:a8:a8:76:c0:19:44:af:f7:05:47:1f:bc:
                    c6:dc:ac:fd:c0:3d:d0:4e:64:bb:bb:80:77:4e:b3:
                    2f:ee:af:1d:53:28:4d:1d:6f:92:1e:28:b4:ac:34:
                    12:7e:45:c0:bd:0d:d1:34:a4:07:ea:a0:41:57:5a:
                    19:5a:6b:a0:4a:d5:c3:18:aa:fb:af:cb:4a:3f:7b:
                    81:a1:70:85:78:fd:25:08:5f:c6:2c:d5:e3:31:36:
                    a9:3d:6a:49:b2:55:03:a8:d5:a8:d4:8c:cf:43:3c:
                    c8:45:1e:58:d6:8b:42:4c:a5:1b:c9:6c:ac:84:0c:
                    14:1b:52:2a:26:18:08:57:99:34:63:78:be:74:04:
                    8d:8d:15:86:4d:95:cf:e1:92:79:76:51:8b:9d:a3:
                    40:e6:56:c5:dd:aa:bb:2d:fd:93:bc:c9:6d:32:20:
                    e6:6f
                Exponent: 65537 (0x10001)
        X509v3 extensions:
            X509v3 Basic Constraints: 
                CA:FALSE
            Netscape Comment: 
                OpenSSL Generated Certificate
            X509v3 Subject Key Identifier: 
                07:63:7A:EB:B9:40:63:54:BE:03:F5:21:28:57:D3:86:8B:C9:2C:4C
            X509v3 Authority Key Identifier: 
                keyid:26:3B:FE:C1:A2:DE:D9:51:D9:FF:E7:5F:C9:E0:80:39:63:AC:89:7B

    Signature Algorithm: sha1WithRSAEncryption
        47:5a:68:4b:49:c3:b2:1e:d2:07:71:a6:cc:ad:9a:77:02:bf:
        08:72:54:ad:b0:2e:9e:55:7f:86:87:e5:37:72:60:1b:62:b4:
        33:d3:b5:44:d5:f1:8b:c1:14:fe:c7:20:79:cd:68:2f:31:4f:
        84:17:6c:77:e4:71:15:bb:5d:7a:07:91:91:ec:1f:98:8c:3d:
        8f:8b:ff:93:dd:d3:12:ec:3f:6c:82:1f:24:8d:24:5a:16:6f:
        d0:08:53:b0:8b:58:50:c5:97:d2:de:02:69:ef:6d:80:64:d0:
        a8:19:d8:4a:70:c7:b7:09:d1:8e:b8:09:5c:bd:8f:1e:70:62:
        d3:f4:ff:db:8b:13:3a:46:04:7f:87:16:c9:41:9d:37:dd:03:
        3e:44:fe:9a:a2:0e:b6:41:11:01:44:ce:1b:c7:5c:97:9b:00:
        fa:2a:8e:0e:6a:77:a9:b5:ea:c1:a1:37:da:ee:e6:40:31:8e:
        04:a7:8e:28:99:90:aa:5a:68:69:a2:45:2a:0b:d2:69:4f:89:
        e4:8e:fb:26:79:58:a9:9a:85:7a:13:7a:fd:c9:a1:f0:5b:63:
        ed:fd:a1:0b:3e:ee:d0:d1:14:26:1c:67:6a:e7:68:02:58:46:
        02:a3:3d:2f:3d:33:22:0e:77:9e:23:e6:53:ea:3b:90:eb:b5:
        7b:69:96:1a
-----BEGIN CERTIFICATE-----
MIIEAzCCAuugAwIBAgIJAP0grHhxZn8JMA0GCSqGSIb3DQEBBQUAMHYxCzAJBgNV
BAYTAkNMMRYwFAYDVQQIDA1DTElFTlRDQVN0YXRlMREwDwYDVQQKDAhDbGllbnRD
QTEOMAwGA1UECwwFc2Rma2oxEjAQBgNVBAMMCWxvY2FsaG9zdDEYMBYGCSqGSIb3
DQEJARYJbm9AdS5hc2RmMB4XDTEyMDIwODE5MDg0OVoXDTEzMDIwNzE5MDg0OVow
gY4xCzAJBgNVBAYTAnF3MRIwEAYDVQQIDAlkaWUgc3RhdGUxETAPBgNVBAcMCGNp
dHlvZm1lMRcwFQYDVQQKDA5jbGllbnRDZXJ0IEluYzENMAsGA1UECwwEYWtkZjES
MBAGA1UEAwwJbG9jYWxob3N0MRwwGgYJKoZIhvcNAQkBFg1ld29ydUBqa3MuY29t
MIIBIjANBgkqhkiG9w0BAQEFAAOCAQ8AMIIBCgKCAQEA2ZSYmLTVy1wmO/fqA26m
IQlGEM0UxQomJZ2GbjpXh21b2sdXfw7vmyHuXor7lNFxj/6Huh3L7mfNcSxy8PGZ
hyxwt7EOKV8HnvXwL9WC5m1f6N7SOzPhg3/zKOaoqHbAGUSv9wVHH7zG3Kz9wD3Q
TmS7u4B3TrMv7q8dUyhNHW+SHii0rDQSfkXAvQ3RNKQH6qBBV1oZWmugStXDGKr7
r8tKP3uBoXCFeP0lCF/GLNXjMTapPWpJslUDqNWo1IzPQzzIRR5Y1otCTKUbyWys
hAwUG1IqJhgIV5k0Y3i+dASNjRWGTZXP4ZJ5dlGLnaNA5lbF3aq7Lf2TvMltMiDm
bwIDAQABo3sweTAJBgNVHRMEAjAAMCwGCWCGSAGG+EIBDQQfFh1PcGVuU1NMIEdl
bmVyYXRlZCBDZXJ0aWZpY2F0ZTAdBgNVHQ4EFgQUB2N667lAY1S+A/UhKFfThovJ
LEwwHwYDVR0jBBgwFoAUJjv+waLe2VHZ/+dfyeCAOWOsiXswDQYJKoZIhvcNAQEF
BQADggEBAEdaaEtJw7Ie0gdxpsytmncCvwhyVK2wLp5Vf4aH5TdyYBtitDPTtUTV
8YvBFP7HIHnNaC8xT4QXbHfkcRW7XXoHkZHsH5iMPY+L/5Pd0xLsP2yCHySNJFoW
b9AIU7CLWFDFl9LeAmnvbYBk0KgZ2Epwx7cJ0Y64CVy9jx5wYtP0/9uLEzpGBH+H
FslBnTfdAz5E/pqiDrZBEQFEzhvHXJebAPoqjg5qd6m16sGhN9ru5kAxjgSnjiiZ
kKpaaGmiRSoL0mlPieSO+yZ5WKmahXoTev3JofBbY+39oQs+7tDRFCYcZ2rnaAJY
RgKjPS89MyIOd54j5lPqO5DrtXtplho=
-----END CERTIFICATE-----
