Certificate:
    Data:
        Version: 3 (0x2)
        Serial Number:
            f5:89:3e:9b:76:71:ec:8c
        Signature Algorithm: sha1WithRSAEncryption
        Issuer: C=fu, ST=ck, O=DemoCAt, OU=nig, CN=DemoCAt Masturbatory Clinic/emailAddress=balls@sack.com
        Validity
            Not Before: Feb  8 19:16:23 2012 GMT
            Not After : Feb  7 19:16:23 2013 GMT
        Subject: C=lo, ST=za, L=ed, O=Sub Company Number 7, OU=lawl, CN=localhost/emailAddress=fuck@localhost.7
        Subject Public Key Info:
            Public Key Algorithm: rsaEncryption
                Public-Key: (2048 bit)
                Modulus:
                    00:93:e0:c5:59:33:62:a7:bf:81:ac:20:56:f5:46:
                    02:04:2d:12:f8:37:63:f4:d1:ec:50:97:c7:b9:d5:
                    f2:ed:85:f8:a9:15:14:99:ac:68:0e:df:84:f0:20:
                    c1:27:de:56:55:a9:e8:9b:dd:46:d8:7d:92:4e:35:
                    1d:11:ea:3f:19:92:32:2e:19:c1:d4:49:ef:c4:56:
                    da:a6:50:99:c3:9a:25:5a:08:08:54:81:be:68:3d:
                    bb:80:6c:85:8d:24:db:69:1c:7e:97:b2:8f:7c:d5:
                    82:de:53:72:a9:9c:4d:2e:d6:7c:c8:a0:af:5e:0f:
                    bd:30:1d:19:47:55:96:c3:ee:63:f9:4d:ce:f8:c1:
                    66:76:bb:3d:e3:f1:98:27:3a:02:cc:42:19:90:bb:
                    aa:cf:ef:02:ea:c0:e8:fa:e5:b7:e7:ad:4f:53:0e:
                    f9:2a:84:47:05:8e:73:81:54:ec:07:cd:d1:cc:be:
                    32:0a:37:f1:4f:41:a0:93:09:d9:0c:bf:ba:9b:14:
                    bc:eb:18:71:a6:30:31:cb:31:ba:7f:78:96:0d:43:
                    d1:a2:c2:e5:27:d0:0d:a7:74:68:60:15:31:f6:1c:
                    76:c6:17:02:3d:d8:15:28:ff:2c:5c:3d:87:af:75:
                    26:76:8e:61:7b:63:03:bd:2f:e0:c7:e7:a4:3b:a6:
                    59:8d
                Exponent: 65537 (0x10001)
        X509v3 extensions:
            X509v3 Basic Constraints: 
                CA:FALSE
            Netscape Comment: 
                OpenSSL Generated Certificate
            X509v3 Subject Key Identifier: 
                0B:8B:29:D3:D4:9A:EA:F0:2C:BD:14:AE:1E:E9:38:63:8C:E5:F3:87
            X509v3 Authority Key Identifier: 
                keyid:37:C4:D6:AF:BC:18:E2:F3:E5:54:31:D8:FD:2E:B5:86:36:A2:88:48

    Signature Algorithm: sha1WithRSAEncryption
        b0:c5:8e:02:21:4e:77:ed:f1:eb:e2:e9:a8:c2:f1:0d:b2:a5:
        17:55:33:02:9e:f2:54:32:6a:44:91:db:76:d4:da:6b:95:93:
        83:af:c1:05:f2:44:aa:35:2e:dd:3a:44:d3:f8:ff:db:60:3e:
        ac:0d:96:9b:de:33:ec:45:db:e3:b7:5c:a0:1c:57:74:05:fa:
        e1:34:4a:5c:03:0c:a1:10:a7:ef:83:fa:ab:e4:f4:01:a7:84:
        ac:ec:7c:eb:93:9c:48:3b:9d:6d:b0:9a:52:a8:7d:e0:13:91:
        98:e1:70:9d:af:85:a5:b2:aa:2e:11:fc:fe:7a:a5:a5:83:19:
        c3:e9:3c:e9:03:02:e1:4a:35:ac:31:08:6f:11:0f:bc:8b:20:
        61:46:a6:a2:10:78:53:17:d4:01:60:35:8e:70:7c:93:52:a5:
        31:0d:b8:04:b8:ad:17:09:d6:73:d1:d0:70:e2:a0:69:55:05:
        f8:0e:c6:c7:39:e0:19:11:5e:b7:6c:a4:46:23:0b:e1:29:1d:
        6c:48:11:9c:32:99:21:5c:68:32:55:96:7b:2f:23:9f:30:8f:
        8a:1e:a6:fa:b6:9e:a3:5e:27:26:d1:43:d6:f9:1b:89:5a:ef:
        d7:a9:22:b4:0d:0d:11:f9:1f:d2:fd:c5:44:f0:6d:fb:30:39:
        98:bc:45:3f
-----BEGIN CERTIFICATE-----
MIIECDCCAvCgAwIBAgIJAPWJPpt2ceyMMA0GCSqGSIb3DQEBBQUAMH8xCzAJBgNV
BAYTAmZ1MQswCQYDVQQIDAJjazEQMA4GA1UECgwHRGVtb0NBdDEMMAoGA1UECwwD
bmlnMSQwIgYDVQQDDBtEZW1vQ0F0IE1hc3R1cmJhdG9yeSBDbGluaWMxHTAbBgkq
hkiG9w0BCQEWDmJhbGxzQHNhY2suY29tMB4XDTEyMDIwODE5MTYyM1oXDTEzMDIw
NzE5MTYyM1owgYoxCzAJBgNVBAYTAmxvMQswCQYDVQQIDAJ6YTELMAkGA1UEBwwC
ZWQxHTAbBgNVBAoMFFN1YiBDb21wYW55IE51bWJlciA3MQ0wCwYDVQQLDARsYXds
MRIwEAYDVQQDDAlsb2NhbGhvc3QxHzAdBgkqhkiG9w0BCQEWEGZ1Y2tAbG9jYWxo
b3N0LjcwggEiMA0GCSqGSIb3DQEBAQUAA4IBDwAwggEKAoIBAQCT4MVZM2Knv4Gs
IFb1RgIELRL4N2P00exQl8e51fLthfipFRSZrGgO34TwIMEn3lZVqeib3UbYfZJO
NR0R6j8ZkjIuGcHUSe/EVtqmUJnDmiVaCAhUgb5oPbuAbIWNJNtpHH6Xso981YLe
U3KpnE0u1nzIoK9eD70wHRlHVZbD7mP5Tc74wWZ2uz3j8ZgnOgLMQhmQu6rP7wLq
wOj65bfnrU9TDvkqhEcFjnOBVOwHzdHMvjIKN/FPQaCTCdkMv7qbFLzrGHGmMDHL
Mbp/eJYNQ9GiwuUn0A2ndGhgFTH2HHbGFwI92BUo/yxcPYevdSZ2jmF7YwO9L+DH
56Q7plmNAgMBAAGjezB5MAkGA1UdEwQCMAAwLAYJYIZIAYb4QgENBB8WHU9wZW5T
U0wgR2VuZXJhdGVkIENlcnRpZmljYXRlMB0GA1UdDgQWBBQLiynT1Jrq8Cy9FK4e
6ThjjOXzhzAfBgNVHSMEGDAWgBQ3xNavvBji8+VUMdj9LrWGNqKISDANBgkqhkiG
9w0BAQUFAAOCAQEAsMWOAiFOd+3x6+LpqMLxDbKlF1UzAp7yVDJqRJHbdtTaa5WT
g6/BBfJEqjUu3TpE0/j/22A+rA2Wm94z7EXb47dcoBxXdAX64TRKXAMMoRCn74P6
q+T0AaeErOx865OcSDudbbCaUqh94BORmOFwna+FpbKqLhH8/nqlpYMZw+k86QMC
4Uo1rDEIbxEPvIsgYUamohB4UxfUAWA1jnB8k1KlMQ24BLitFwnWc9HQcOKgaVUF
+A7GxzngGRFet2ykRiML4SkdbEgRnDKZIVxoMlWWey8jnzCPih6m+raeo14nJtFD
1vkbiVrv16kitA0NEfkf0v3FRPBt+zA5mLxFPw==
-----END CERTIFICATE-----
