Certificate:
    Data:
        Version: 3 (0x2)
        Serial Number:
            fd:20:ac:78:71:66:7f:08
        Signature Algorithm: sha1WithRSAEncryption
        Issuer: C=CL, ST=CLIENTCAState, O=ClientCA, OU=sdfkj, CN=localhost/emailAddress=no@u.asdf
        Validity
            Not Before: Feb  8 19:07:07 2012 GMT
            Not After : Feb  7 19:07:07 2015 GMT
        Subject: C=CL, ST=CLIENTCAState, O=ClientCA, OU=sdfkj, CN=localhost/emailAddress=no@u.asdf
        Subject Public Key Info:
            Public Key Algorithm: rsaEncryption
                Public-Key: (2048 bit)
                Modulus:
                    00:c6:32:e9:eb:24:a0:7e:9c:47:63:62:68:46:c8:
                    a5:00:93:90:1d:73:4b:79:cc:50:54:98:cb:09:0c:
                    c3:84:1d:f3:32:e9:6f:85:11:55:7d:14:21:6e:25:
                    0d:0e:cc:bc:74:93:b7:d5:3f:4a:7d:77:7e:9b:79:
                    7c:27:d0:12:ce:db:34:33:c6:dc:7f:33:7c:c9:38:
                    74:42:f1:6a:fe:b5:e5:43:58:5c:30:1a:95:48:2c:
                    84:8f:33:0a:5e:76:45:9a:bd:d3:61:c9:4a:f8:ba:
                    58:0d:12:8c:9b:ff:37:7d:51:d0:de:58:e2:f0:b2:
                    bb:13:f6:d7:f1:ff:63:ab:ea:97:3e:5b:6c:42:a3:
                    6d:a1:c0:51:0d:00:95:22:3c:e1:de:e6:39:31:3b:
                    9a:28:df:1a:fd:be:25:9d:af:82:d9:be:31:d9:5f:
                    a2:7a:95:fc:e3:ba:85:66:60:82:bd:ac:70:fb:83:
                    4a:f4:54:08:26:83:28:15:cf:77:ad:fb:2c:3e:54:
                    85:e9:5f:a4:f4:16:fe:96:6f:40:36:b7:fe:ab:df:
                    18:ac:64:b3:c5:05:8b:08:1a:02:50:c9:4f:44:c5:
                    58:25:ea:50:99:95:47:49:59:25:5b:06:90:a4:1a:
                    8f:4c:03:78:46:3a:4b:ef:b3:a5:c9:c4:2a:df:79:
                    f8:55
                Exponent: 65537 (0x10001)
        X509v3 extensions:
            X509v3 Subject Key Identifier: 
                26:3B:FE:C1:A2:DE:D9:51:D9:FF:E7:5F:C9:E0:80:39:63:AC:89:7B
            X509v3 Authority Key Identifier: 
                keyid:26:3B:FE:C1:A2:DE:D9:51:D9:FF:E7:5F:C9:E0:80:39:63:AC:89:7B

            X509v3 Basic Constraints: 
                CA:TRUE
    Signature Algorithm: sha1WithRSAEncryption
        8a:57:7a:59:f2:86:e1:87:78:e5:26:4a:22:ca:ac:12:02:2d:
        3e:e0:c7:f8:00:d3:b5:31:fb:f3:89:50:f5:8c:43:06:8d:62:
        28:83:46:0d:18:27:6b:fe:06:a8:87:31:98:9c:c9:e0:32:81:
        bc:fb:23:eb:0d:21:0e:91:91:7e:23:b2:65:74:c4:da:40:ef:
        29:a6:71:e4:93:13:6b:3e:be:a9:3a:91:4e:18:45:d5:21:47:
        b7:f8:46:79:e6:5e:2d:7d:75:01:29:49:39:29:75:73:aa:c2:
        1f:84:c3:01:96:1f:20:55:88:a6:5c:65:ce:85:e8:33:8d:b6:
        12:09:b7:cf:ff:08:71:fd:b6:a5:32:9e:fb:51:a7:94:f0:08:
        f5:8e:bd:0f:a5:2a:ae:53:ee:09:f8:16:8c:1b:29:02:a7:36:
        e3:de:ee:d3:3e:94:88:99:59:c8:e3:43:0e:09:0e:83:75:1e:
        54:53:c3:9b:0e:70:d4:e5:90:d8:c8:33:db:96:1f:62:fc:78:
        dc:7f:1a:83:d4:9e:76:94:34:28:78:f5:22:b7:40:71:d6:03:
        5b:04:73:d9:a7:fc:a6:44:3a:e0:ba:14:f5:91:1b:7d:49:37:
        65:b0:d9:6c:c2:98:39:af:19:4c:4b:d3:e6:24:81:cb:cd:9d:
        bc:d0:32:d2
-----BEGIN CERTIFICATE-----
MIIDvzCCAqegAwIBAgIJAP0grHhxZn8IMA0GCSqGSIb3DQEBBQUAMHYxCzAJBgNV
BAYTAkNMMRYwFAYDVQQIDA1DTElFTlRDQVN0YXRlMREwDwYDVQQKDAhDbGllbnRD
QTEOMAwGA1UECwwFc2Rma2oxEjAQBgNVBAMMCWxvY2FsaG9zdDEYMBYGCSqGSIb3
DQEJARYJbm9AdS5hc2RmMB4XDTEyMDIwODE5MDcwN1oXDTE1MDIwNzE5MDcwN1ow
djELMAkGA1UEBhMCQ0wxFjAUBgNVBAgMDUNMSUVOVENBU3RhdGUxETAPBgNVBAoM
CENsaWVudENBMQ4wDAYDVQQLDAVzZGZrajESMBAGA1UEAwwJbG9jYWxob3N0MRgw
FgYJKoZIhvcNAQkBFglub0B1LmFzZGYwggEiMA0GCSqGSIb3DQEBAQUAA4IBDwAw
ggEKAoIBAQDGMunrJKB+nEdjYmhGyKUAk5Adc0t5zFBUmMsJDMOEHfMy6W+FEVV9
FCFuJQ0OzLx0k7fVP0p9d36beXwn0BLO2zQzxtx/M3zJOHRC8Wr+teVDWFwwGpVI
LISPMwpedkWavdNhyUr4ulgNEoyb/zd9UdDeWOLwsrsT9tfx/2Or6pc+W2xCo22h
wFENAJUiPOHe5jkxO5oo3xr9viWdr4LZvjHZX6J6lfzjuoVmYIK9rHD7g0r0VAgm
gygVz3et+yw+VIXpX6T0Fv6Wb0A2t/6r3xisZLPFBYsIGgJQyU9ExVgl6lCZlUdJ
WSVbBpCkGo9MA3hGOkvvs6XJxCrfefhVAgMBAAGjUDBOMB0GA1UdDgQWBBQmO/7B
ot7ZUdn/51/J4IA5Y6yJezAfBgNVHSMEGDAWgBQmO/7Bot7ZUdn/51/J4IA5Y6yJ
ezAMBgNVHRMEBTADAQH/MA0GCSqGSIb3DQEBBQUAA4IBAQCKV3pZ8obhh3jlJkoi
yqwSAi0+4Mf4ANO1MfvziVD1jEMGjWIog0YNGCdr/gaohzGYnMngMoG8+yPrDSEO
kZF+I7JldMTaQO8ppnHkkxNrPr6pOpFOGEXVIUe3+EZ55l4tfXUBKUk5KXVzqsIf
hMMBlh8gVYimXGXOhegzjbYSCbfP/whx/balMp77UaeU8Aj1jr0PpSquU+4J+BaM
GykCpzbj3u7TPpSImVnI40MOCQ6DdR5UU8ObDnDU5ZDYyDPblh9i/HjcfxqD1J52
lDQoePUit0Bx1gNbBHPZp/ymRDrguhT1kRt9STdlsNlswpg5rxlMS9PmJIHLzZ28
0DLS
-----END CERTIFICATE-----
